; Function Attrs: mustprogress nofree norecurse nosync nounwind willreturn memory(read, inaccessiblemem: none) uwtable
define hidden noundef i32 @_ZNK3sat10simplifier5valueENS_7literalE(ptr nocapture noundef nonnull readonly align 8 dereferenceable(288) %this, i32 %l.coerce) local_unnamed_addr #9 align 2 {
entry:
  %0 = load ptr, ptr %this, align 8
  %m_assignment.i = getelementptr inbounds i8, ptr %0, i64 3440
  %1 = load ptr, ptr %m_assignment.i, align 8
  %idxprom.i.i = zext i32 %l.coerce to i64
  %arrayidx.i.i = getelementptr inbounds i32, ptr %1, i64 %idxprom.i.i
  %2 = load i32, ptr %arrayidx.i.i, align 4
  ret i32 %2
}